; Function Attrs: mustprogress uwtable
define void @_ZN10open_spiel11negotiation15NegotiationGame24ConstructLegalUtterancesEv(ptr noundef nonnull align 8 dereferenceable(336) %0) local_unnamed_addr #3 align 2 personality ptr @__gxx_personality_v0 {
  %2 = getelementptr inbounds nuw i8, ptr %0, i64 281
  %3 = load i8, ptr %2, align 1
  %4 = trunc i8 %3 to i1
  br i1 %4, label %5, label %.loopexit

5:                                                ; preds = %1
  %6 = getelementptr inbounds nuw i8, ptr %0, i64 304
  %7 = getelementptr inbounds nuw i8, ptr %0, i64 288
  %8 = load i32, ptr %7, align 8
  %9 = getelementptr inbounds nuw i8, ptr %0, i64 292
  %10 = load i32, ptr %9, align 4
  %11 = sitofp i32 %8 to double
  %12 = sitofp i32 %10 to double
  %13 = tail call noundef double @pow(double noundef %11, double noundef %12) #32
  %14 = fptosi double %13 to i32
  %15 = sext i32 %14 to i64
  %16 = getelementptr inbounds i8, ptr %0, i64 312
  %17 = load ptr, ptr %16, align 8
  %18 = load ptr, ptr %6, align 8
  %19 = ptrtoint ptr %17 to i64
  %20 = ptrtoint ptr %18 to i64
  %21 = sub i64 %19, %20
  %22 = ashr exact i64 %21, 3
  %23 = icmp ult i64 %22, %15
  br i1 %23, label %24, label %26

24:                                               ; preds = %5
  %25 = sub nuw nsw i64 %15, %22
  tail call void @_ZNSt6vectorIlSaIlEE17_M_default_appendEm(ptr noundef nonnull align 8 dereferenceable(24) %6, i64 noundef %25)
  br label %_ZNSt6vectorIlSaIlEE6resizeEm.exit

26:                                               ; preds = %5
  %27 = icmp ugt i64 %22, %15
  br i1 %27, label %28, label %_ZNSt6vectorIlSaIlEE6resizeEm.exit

28:                                               ; preds = %26
  %29 = getelementptr inbounds i64, ptr %18, i64 %15
  %.not.i.i = icmp eq ptr %17, %29
  br i1 %.not.i.i, label %_ZNSt6vectorIlSaIlEE6resizeEm.exit, label %30

30:                                               ; preds = %28
  store ptr %29, ptr %16, align 8
  br label %_ZNSt6vectorIlSaIlEE6resizeEm.exit

_ZNSt6vectorIlSaIlEE6resizeEm.exit:               ; preds = %24, %26, %28, %30
  %31 = load i32, ptr %7, align 8
  %32 = load i32, ptr %9, align 4
  %33 = sitofp i32 %31 to double
  %34 = sitofp i32 %32 to double
  %35 = tail call noundef double @pow(double noundef %33, double noundef %34) #32
  %36 = fptosi double %35 to i32
  %37 = icmp sgt i32 %36, 0
  br i1 %37, label %.lr.ph, label %.loopexit

.lr.ph:                                           ; preds = %_ZNSt6vectorIlSaIlEE6resizeEm.exit
  %38 = getelementptr inbounds nuw i8, ptr %0, i64 284
  br label %39

39:                                               ; preds = %.lr.ph, %39
  %indvars.iv = phi i64 [ 0, %.lr.ph ], [ %indvars.iv.next, %39 ]
  %40 = load i32, ptr %38, align 4
  %41 = sitofp i32 %40 to double
  %42 = tail call noundef double @pow(double noundef 6.000000e+00, double noundef %41) #32
  %43 = fptosi double %42 to i32
  %indvars.iv.next = add nuw nsw i64 %indvars.iv, 1
  %44 = trunc nuw nsw i64 %indvars.iv.next to i32
  %45 = add i32 %44, %43
  %46 = sext i32 %45 to i64
  %47 = load ptr, ptr %6, align 8
  %48 = getelementptr inbounds i64, ptr %47, i64 %indvars.iv
  store i64 %46, ptr %48, align 8
  %49 = load i32, ptr %7, align 8
  %50 = load i32, ptr %9, align 4
  %51 = sitofp i32 %49 to double
  %52 = sitofp i32 %50 to double
  %53 = tail call noundef double @pow(double noundef %51, double noundef %52) #32
  %54 = fptosi double %53 to i32
  %55 = sext i32 %54 to i64
  %56 = icmp slt i64 %indvars.iv.next, %55
  br i1 %56, label %39, label %.loopexit, !llvm.loop !152

.loopexit:                                        ; preds = %39, %_ZNSt6vectorIlSaIlEE6resizeEm.exit, %1
  ret void
}